; Function Attrs: nounwind uwtable
define hidden ptr @lxb_dom_document_type_name_noi(ptr nocapture noundef readonly %0, ptr noundef writeonly %1) local_unnamed_addr #0 {
  %3 = getelementptr inbounds i8, ptr %0, i64 32
  %4 = load ptr, ptr %3, align 8
  %5 = getelementptr inbounds i8, ptr %4, i64 208
  %6 = load ptr, ptr %5, align 8
  %7 = getelementptr inbounds i8, ptr %0, i64 104
  %8 = load i64, ptr %7, align 8
  %9 = tail call ptr @lxb_dom_attr_data_by_id(ptr noundef %6, i64 noundef %8) #5
  %10 = icmp eq ptr %9, null
  br i1 %10, label %14, label %11

11:                                               ; preds = %2
  %12 = load i64, ptr %7, align 8
  %13 = icmp eq i64 %12, 0
  br i1 %13, label %14, label %16

14:                                               ; preds = %11, %2
  %.not13.i = icmp eq ptr %1, null
  br i1 %.not13.i, label %lxb_dom_document_type_name.exit, label %15

15:                                               ; preds = %14
  store i64 0, ptr %1, align 8
  br label %lxb_dom_document_type_name.exit

16:                                               ; preds = %11
  %.not.i = icmp eq ptr %1, null
  %.phi.trans.insert.i = getelementptr inbounds i8, ptr %9, i64 24
  %.pre.i = load i64, ptr %.phi.trans.insert.i, align 8
  br i1 %.not.i, label %._crit_edge.i, label %17

17:                                               ; preds = %16
  store i64 %.pre.i, ptr %1, align 8
  br label %._crit_edge.i

._crit_edge.i:                                    ; preds = %17, %16
  %18 = icmp ult i64 %.pre.i, 17
  br i1 %18, label %lxb_dom_document_type_name.exit, label %19

19:                                               ; preds = %._crit_edge.i
  %20 = load ptr, ptr %9, align 8
  br label %lxb_dom_document_type_name.exit

lxb_dom_document_type_name.exit:                  ; preds = %14, %15, %._crit_edge.i, %19
  %.0.i = phi ptr [ @lxb_dom_document_type_name.lxb_empty, %15 ], [ @lxb_dom_document_type_name.lxb_empty, %14 ], [ %20, %19 ], [ %9, %._crit_edge.i ]
  ret ptr %.0.i
}